target datalayout = "e-m:e-p270:32:32-p271:32:32-p272:64:64-i64:64-i128:128-f80:128-n8:16:32:64-S128"
target triple = "x86_64-pc-linux-gnu"

%struct.Hop_Obj_t_ = type { %union.anon, %union.anon.0, ptr, ptr, i32, i32 }
%union.anon = type { ptr }
%union.anon.0 = type { ptr }

@Truth = internal global [8 x i64] [i64 -6148914691236517206, i64 -3689348814741910324, i64 -1085102592571150096, i64 -71777214294589696, i64 -281470681808896, i64 -4294967296, i64 0, i64 -1], align 16

; Function Attrs: inlinehint nounwind uwtable
define internal i32 @Hop_IsComplement(ptr noundef %0) #2 {
  %2 = alloca ptr, align 8
  store ptr %0, ptr %2, align 8, !tbaa !3
  %3 = load ptr, ptr %2, align 8, !tbaa !3
  %4 = ptrtoint ptr %3 to i64
  %5 = and i64 %4, 1
  %6 = trunc i64 %5 to i32
  ret i32 %6
}

; Function Attrs: inlinehint nounwind uwtable
define internal ptr @Hop_Regular(ptr noundef %0) #2 {
  %2 = alloca ptr, align 8
  store ptr %0, ptr %2, align 8, !tbaa !3
  %3 = load ptr, ptr %2, align 8, !tbaa !3
  %4 = ptrtoint ptr %3 to i64
  %5 = and i64 %4, -2
  %6 = inttoptr i64 %5 to ptr
  ret ptr %6
}

; Function Attrs: inlinehint nounwind uwtable
define internal i32 @Hop_ObjFaninC1(ptr noundef %0) #2 {
  %2 = alloca ptr, align 8
  store ptr %0, ptr %2, align 8, !tbaa !3
  %3 = load ptr, ptr %2, align 8, !tbaa !3
  %4 = getelementptr inbounds nuw %struct.Hop_Obj_t_, ptr %3, i32 0, i32 3
  %5 = load ptr, ptr %4, align 8, !tbaa !12
  %6 = call i32 @Hop_IsComplement(ptr noundef %5)
  ret i32 %6
}

; Function Attrs: inlinehint nounwind uwtable
define internal i32 @Hop_ObjFaninC0(ptr noundef %0) #2 {
  %2 = alloca ptr, align 8
  store ptr %0, ptr %2, align 8, !tbaa !3
  %3 = load ptr, ptr %2, align 8, !tbaa !3
  %4 = getelementptr inbounds nuw %struct.Hop_Obj_t_, ptr %3, i32 0, i32 2
  %5 = load ptr, ptr %4, align 8, !tbaa !10
  %6 = call i32 @Hop_IsComplement(ptr noundef %5)
  ret i32 %6
}

; Function Attrs: inlinehint nounwind uwtable
define internal ptr @Hop_ObjFanin1(ptr noundef %0) #2 {
  %2 = alloca ptr, align 8
  store ptr %0, ptr %2, align 8, !tbaa !3
  %3 = load ptr, ptr %2, align 8, !tbaa !3
  %4 = getelementptr inbounds nuw %struct.Hop_Obj_t_, ptr %3, i32 0, i32 3
  %5 = load ptr, ptr %4, align 8, !tbaa !12
  %6 = call ptr @Hop_Regular(ptr noundef %5)
  ret ptr %6
}

; Function Attrs: inlinehint nounwind uwtable
define internal ptr @Hop_ObjFanin0(ptr noundef %0) #2 {
  %2 = alloca ptr, align 8
  store ptr %0, ptr %2, align 8, !tbaa !3
  %3 = load ptr, ptr %2, align 8, !tbaa !3
  %4 = getelementptr inbounds nuw %struct.Hop_Obj_t_, ptr %3, i32 0, i32 2
  %5 = load ptr, ptr %4, align 8, !tbaa !10
  %6 = call ptr @Hop_Regular(ptr noundef %5)
  ret ptr %6
}

; Function Attrs: inlinehint nounwind uwtable
define internal i32 @Hop_ObjIsPi(ptr noundef %0) #2 {
  %2 = alloca ptr, align 8
  store ptr %0, ptr %2, align 8, !tbaa !3
  %3 = load ptr, ptr %2, align 8, !tbaa !3
  %4 = getelementptr inbounds nuw %struct.Hop_Obj_t_, ptr %3, i32 0, i32 4
  %5 = load i32, ptr %4, align 8
  %6 = and i32 %5, 7
  %7 = icmp eq i32 %6, 2
  %8 = zext i1 %7 to i32
  ret i32 %8
}

; Function Attrs: nounwind uwtable
define i64 @Hop_ManComputeTruth6_rec(ptr noundef %0, ptr noundef %1) #0 {
  %3 = alloca i64, align 8
  %4 = alloca ptr, align 8
  %5 = alloca ptr, align 8
  %6 = alloca i64, align 8
  %7 = alloca i64, align 8
  %8 = alloca i32, align 4
  store ptr %0, ptr %4, align 8, !tbaa !28
  store ptr %1, ptr %5, align 8, !tbaa !3
  call void @llvm.lifetime.start.p0(i64 8, ptr %6) #7
  call void @llvm.lifetime.start.p0(i64 8, ptr %7) #7
  %9 = load ptr, ptr %5, align 8, !tbaa !3
  %10 = call i32 @Hop_ObjIsPi(ptr noundef %9)
  %11 = icmp ne i32 %10, 0
  br i1 %11, label %12, label %19

12:                                               ; preds = %2
  %13 = load ptr, ptr %5, align 8, !tbaa !3
  %14 = getelementptr inbounds nuw %struct.Hop_Obj_t_, ptr %13, i32 0, i32 0
  %15 = load i32, ptr %14, align 8, !tbaa !15
  %16 = sext i32 %15 to i64
  %17 = getelementptr inbounds [8 x i64], ptr @Truth, i64 0, i64 %16
  %18 = load i64, ptr %17, align 8, !tbaa !48
  store i64 %18, ptr %3, align 8
  store i32 1, ptr %8, align 4
  br label %51

19:                                               ; preds = %2
  %20 = load ptr, ptr %4, align 8, !tbaa !28
  %21 = load ptr, ptr %5, align 8, !tbaa !3
  %22 = call ptr @Hop_ObjFanin0(ptr noundef %21)
  %23 = call i64 @Hop_ManComputeTruth6_rec(ptr noundef %20, ptr noundef %22)
  store i64 %23, ptr %6, align 8, !tbaa !48
  %24 = load ptr, ptr %4, align 8, !tbaa !28
  %25 = load ptr, ptr %5, align 8, !tbaa !3
  %26 = call ptr @Hop_ObjFanin1(ptr noundef %25)
  %27 = call i64 @Hop_ManComputeTruth6_rec(ptr noundef %24, ptr noundef %26)
  store i64 %27, ptr %7, align 8, !tbaa !48
  %28 = load ptr, ptr %5, align 8, !tbaa !3
  %29 = call i32 @Hop_ObjFaninC0(ptr noundef %28)
  %30 = icmp ne i32 %29, 0
  br i1 %30, label %31, label %34

31:                                               ; preds = %19
  %32 = load i64, ptr %6, align 8, !tbaa !48
  %33 = xor i64 %32, -1
  br label %36

34:                                               ; preds = %19
  %35 = load i64, ptr %6, align 8, !tbaa !48
  br label %36

36:                                               ; preds = %34, %31
  %37 = phi i64 [ %33, %31 ], [ %35, %34 ]
  store i64 %37, ptr %6, align 8, !tbaa !48
  %38 = load ptr, ptr %5, align 8, !tbaa !3
  %39 = call i32 @Hop_ObjFaninC1(ptr noundef %38)
  %40 = icmp ne i32 %39, 0
  br i1 %40, label %41, label %44

41:                                               ; preds = %36
  %42 = load i64, ptr %7, align 8, !tbaa !48
  %43 = xor i64 %42, -1
  br label %46

44:                                               ; preds = %36
  %45 = load i64, ptr %7, align 8, !tbaa !48
  br label %46

46:                                               ; preds = %44, %41
  %47 = phi i64 [ %43, %41 ], [ %45, %44 ]
  store i64 %47, ptr %7, align 8, !tbaa !48
  %48 = load i64, ptr %6, align 8, !tbaa !48
  %49 = load i64, ptr %7, align 8, !tbaa !48
  %50 = and i64 %48, %49
  store i64 %50, ptr %3, align 8
  store i32 1, ptr %8, align 4
  br label %51

51:                                               ; preds = %46, %12
  call void @llvm.lifetime.end.p0(i64 8, ptr %7) #7
  call void @llvm.lifetime.end.p0(i64 8, ptr %6) #7
  %52 = load i64, ptr %3, align 8
  ret i64 %52
}