; Function Attrs: nofree nosync nounwind memory(read, inaccessiblemem: none) uwtable
define i64 @Hop_ManComputeTruth6_rec(ptr noundef %0, ptr noundef readonly captures(none) %1) local_unnamed_addr #2 {
  %3 = getelementptr i8, ptr %1, i64 32
  %.val20 = load i32, ptr %3, align 8
  %4 = and i32 %.val20, 7
  %.not = icmp eq i32 %4, 2
  br i1 %.not, label %common.ret, label %9

common.ret:                                       ; preds = %2
  %5 = load i32, ptr %1, align 8, !tbaa !11
  %6 = sext i32 %5 to i64
  %7 = getelementptr inbounds [8 x i64], ptr @Truth, i64 0, i64 %6
  %8 = load i64, ptr %7, align 8, !tbaa !42
  br label %common.ret21

common.ret21:                                     ; preds = %9, %common.ret
  %common.ret21.op = phi i64 [ %8, %common.ret ], [ %24, %9 ]
  ret i64 %common.ret21.op

9:                                                ; preds = %2
  %10 = getelementptr i8, ptr %1, i64 16
  %.val = load ptr, ptr %10, align 8, !tbaa !3
  %11 = ptrtoint ptr %.val to i64
  %12 = and i64 %11, -2
  %13 = inttoptr i64 %12 to ptr
  %14 = tail call i64 @Hop_ManComputeTruth6_rec(ptr noundef %0, ptr noundef %13)
  %15 = getelementptr i8, ptr %1, i64 24
  %.val17 = load ptr, ptr %15, align 8, !tbaa !10
  %16 = ptrtoint ptr %.val17 to i64
  %17 = and i64 %16, -2
  %18 = inttoptr i64 %17 to ptr
  %19 = tail call i64 @Hop_ManComputeTruth6_rec(ptr noundef %0, ptr noundef %18)
  %20 = and i64 %11, 1
  %sext = sub nsw i64 0, %20
  %21 = xor i64 %14, %sext
  %22 = and i64 %16, 1
  %sext16 = sub nsw i64 0, %22
  %23 = xor i64 %19, %sext16
  %24 = and i64 %23, %21
  br label %common.ret21
}